target datalayout = "e-m:e-p270:32:32-p271:32:32-p272:64:64-i64:64-i128:128-f80:128-n8:16:32:64-S128"
target triple = "x86_64-unknown-linux-gnu"

%"class.node::inspector::protocol::span" = type { ptr, i64 }
%"struct.node::inspector::protocol::Status" = type { i32, i64 }
%"struct.std::_Vector_base.14" = type { %"struct.std::_Vector_base<unsigned char, std::allocator<unsigned char>>::_Vector_impl" }
%"struct.std::_Vector_base<unsigned char, std::allocator<unsigned char>>::_Vector_impl" = type { %"struct.std::_Vector_base<unsigned char, std::allocator<unsigned char>>::_Vector_impl_data" }
%"struct.std::_Vector_base<unsigned char, std::allocator<unsigned char>>::_Vector_impl_data" = type { ptr, ptr, ptr }
%"class.__gnu_cxx::__normal_iterator.43" = type { ptr }
%"class.__gnu_cxx::__normal_iterator" = type { ptr }
%"class.node::inspector::protocol::cbor::(anonymous namespace)::CBOREncoder" = type { %"class.node::inspector::protocol::StreamingParserHandler", ptr, %"class.std::vector.183", ptr }
%"class.node::inspector::protocol::StreamingParserHandler" = type { ptr }
%"class.std::vector.183" = type { %"struct.std::_Vector_base.184" }
%"struct.std::_Vector_base.184" = type { %"struct.std::_Vector_base<node::inspector::protocol::cbor::EnvelopeEncoder, std::allocator<node::inspector::protocol::cbor::EnvelopeEncoder>>::_Vector_impl" }
%"struct.std::_Vector_base<node::inspector::protocol::cbor::EnvelopeEncoder, std::allocator<node::inspector::protocol::cbor::EnvelopeEncoder>>::_Vector_impl" = type { %"struct.std::_Vector_base<node::inspector::protocol::cbor::EnvelopeEncoder, std::allocator<node::inspector::protocol::cbor::EnvelopeEncoder>>::_Vector_impl_data" }
%"struct.std::_Vector_base<node::inspector::protocol::cbor::EnvelopeEncoder, std::allocator<node::inspector::protocol::cbor::EnvelopeEncoder>>::_Vector_impl_data" = type { ptr, ptr, ptr }

; Function Attrs: mustprogress nounwind uwtable
define linkonce_odr dso_local void @_ZSt19__iterator_categoryIPKhENSt15iterator_traitsIT_E17iterator_categoryERKS3_(ptr noundef nonnull align 8 dereferenceable(8) %0) #0 comdat {
entry:
  %.addr = alloca ptr, align 8
  store ptr %0, ptr %.addr, align 8
  ret void
}

; Function Attrs: mustprogress nounwind uwtable
define linkonce_odr dso_local noundef nonnull align 8 dereferenceable(8) ptr @_ZNK9__gnu_cxx17__normal_iteratorIPKhSt6vectorIhSaIhEEE4baseEv(ptr noundef nonnull align 8 dereferenceable(8) %this) #0 comdat align 2 {
entry:
  %this.addr = alloca ptr, align 8
  store ptr %this, ptr %this.addr, align 8
  %this1 = load ptr, ptr %this.addr, align 8
  %_M_current = getelementptr inbounds %"class.__gnu_cxx::__normal_iterator.43", ptr %this1, i32 0, i32 0
  ret ptr %_M_current
}

; Function Attrs: mustprogress nounwind uwtable
define linkonce_odr dso_local void @_ZN9__gnu_cxx17__normal_iteratorIPKhSt6vectorIhSaIhEEEC2ERKS2_(ptr noundef nonnull align 8 dereferenceable(8) %this, ptr noundef nonnull align 8 dereferenceable(8) %__i) unnamed_addr #0 comdat align 2 {
entry:
  %this.addr = alloca ptr, align 8
  %__i.addr = alloca ptr, align 8
  store ptr %this, ptr %this.addr, align 8
  store ptr %__i, ptr %__i.addr, align 8
  %this1 = load ptr, ptr %this.addr, align 8
  %_M_current = getelementptr inbounds %"class.__gnu_cxx::__normal_iterator.43", ptr %this1, i32 0, i32 0
  %0 = load ptr, ptr %__i.addr, align 8
  %1 = load ptr, ptr %0, align 8
  store ptr %1, ptr %_M_current, align 8
  ret void
}

; Function Attrs: mustprogress nounwind uwtable
define linkonce_odr dso_local void @_ZNSt6vectorIhSaIhEE18_M_insert_dispatchIPKhEEvN9__gnu_cxx17__normal_iteratorIPhS1_EET_S9_St12__false_type(ptr noundef nonnull align 8 dereferenceable(24) %this, ptr %__pos.coerce, ptr noundef %__first, ptr noundef %__last) #0 comdat align 2 {
entry:
  %__pos = alloca %"class.__gnu_cxx::__normal_iterator", align 8
  %this.addr = alloca ptr, align 8
  %__first.addr = alloca ptr, align 8
  %__last.addr = alloca ptr, align 8
  %agg.tmp = alloca %"class.__gnu_cxx::__normal_iterator", align 8
  %coerce.dive = getelementptr inbounds %"class.__gnu_cxx::__normal_iterator", ptr %__pos, i32 0, i32 0
  store ptr %__pos.coerce, ptr %coerce.dive, align 8
  store ptr %this, ptr %this.addr, align 8
  store ptr %__first, ptr %__first.addr, align 8
  store ptr %__last, ptr %__last.addr, align 8
  %this1 = load ptr, ptr %this.addr, align 8
  call void @llvm.memcpy.p0.p0.i64(ptr align 8 %agg.tmp, ptr align 8 %__pos, i64 8, i1 false)
  %0 = load ptr, ptr %__first.addr, align 8
  %1 = load ptr, ptr %__last.addr, align 8
  call void @_ZSt19__iterator_categoryIPKhENSt15iterator_traitsIT_E17iterator_categoryERKS3_(ptr noundef nonnull align 8 dereferenceable(8) %__first.addr)
  %coerce.dive3 = getelementptr inbounds %"class.__gnu_cxx::__normal_iterator", ptr %agg.tmp, i32 0, i32 0
  %2 = load ptr, ptr %coerce.dive3, align 8
  call void @_ZNSt6vectorIhSaIhEE15_M_range_insertIPKhEEvN9__gnu_cxx17__normal_iteratorIPhS1_EET_S9_St20forward_iterator_tag(ptr noundef nonnull align 8 dereferenceable(24) %this1, ptr %2, ptr noundef %0, ptr noundef %1)
  ret void
}

; Function Attrs: mustprogress nounwind uwtable
define linkonce_odr dso_local ptr @_ZNK9__gnu_cxx17__normal_iteratorIPhSt6vectorIhSaIhEEEplEl(ptr noundef nonnull align 8 dereferenceable(8) %this, i64 noundef %__n) #0 comdat align 2 {
entry:
  %retval = alloca %"class.__gnu_cxx::__normal_iterator", align 8
  %this.addr = alloca ptr, align 8
  %__n.addr = alloca i64, align 8
  %ref.tmp = alloca ptr, align 8
  store ptr %this, ptr %this.addr, align 8
  store i64 %__n, ptr %__n.addr, align 8
  %this1 = load ptr, ptr %this.addr, align 8
  %_M_current = getelementptr inbounds %"class.__gnu_cxx::__normal_iterator", ptr %this1, i32 0, i32 0
  %0 = load ptr, ptr %_M_current, align 8
  %1 = load i64, ptr %__n.addr, align 8
  %add.ptr = getelementptr inbounds i8, ptr %0, i64 %1
  store ptr %add.ptr, ptr %ref.tmp, align 8
  call void @_ZN9__gnu_cxx17__normal_iteratorIPhSt6vectorIhSaIhEEEC2ERKS1_(ptr noundef nonnull align 8 dereferenceable(8) %retval, ptr noundef nonnull align 8 dereferenceable(8) %ref.tmp) #13
  %coerce.dive = getelementptr inbounds %"class.__gnu_cxx::__normal_iterator", ptr %retval, i32 0, i32 0
  %2 = load ptr, ptr %coerce.dive, align 8
  ret ptr %2
}

; Function Attrs: mustprogress nounwind uwtable
define linkonce_odr dso_local ptr @_ZNSt6vectorIhSaIhEE5beginEv(ptr noundef nonnull align 8 dereferenceable(24) %this) #0 comdat align 2 {
entry:
  %retval = alloca %"class.__gnu_cxx::__normal_iterator", align 8
  %this.addr = alloca ptr, align 8
  store ptr %this, ptr %this.addr, align 8
  %this1 = load ptr, ptr %this.addr, align 8
  %_M_impl = getelementptr inbounds %"struct.std::_Vector_base.14", ptr %this1, i32 0, i32 0
  %_M_start = getelementptr inbounds %"struct.std::_Vector_base<unsigned char, std::allocator<unsigned char>>::_Vector_impl_data", ptr %_M_impl, i32 0, i32 0
  call void @_ZN9__gnu_cxx17__normal_iteratorIPhSt6vectorIhSaIhEEEC2ERKS1_(ptr noundef nonnull align 8 dereferenceable(8) %retval, ptr noundef nonnull align 8 dereferenceable(8) %_M_start) #13
  %coerce.dive = getelementptr inbounds %"class.__gnu_cxx::__normal_iterator", ptr %retval, i32 0, i32 0
  %0 = load ptr, ptr %coerce.dive, align 8
  ret ptr %0
}

; Function Attrs: mustprogress nounwind uwtable
define linkonce_odr dso_local noundef i64 @_ZN9__gnu_cxxmiIPKhSt6vectorIhSaIhEEEENS_17__normal_iteratorIT_T0_E15difference_typeERKS9_SC_(ptr noundef nonnull align 8 dereferenceable(8) %__lhs, ptr noundef nonnull align 8 dereferenceable(8) %__rhs) #0 comdat {
entry:
  %__lhs.addr = alloca ptr, align 8
  %__rhs.addr = alloca ptr, align 8
  store ptr %__lhs, ptr %__lhs.addr, align 8
  store ptr %__rhs, ptr %__rhs.addr, align 8
  %0 = load ptr, ptr %__lhs.addr, align 8
  %call = call noundef nonnull align 8 dereferenceable(8) ptr @_ZNK9__gnu_cxx17__normal_iteratorIPKhSt6vectorIhSaIhEEE4baseEv(ptr noundef nonnull align 8 dereferenceable(8) %0) #13
  %1 = load ptr, ptr %call, align 8
  %2 = load ptr, ptr %__rhs.addr, align 8
  %call1 = call noundef nonnull align 8 dereferenceable(8) ptr @_ZNK9__gnu_cxx17__normal_iteratorIPKhSt6vectorIhSaIhEEE4baseEv(ptr noundef nonnull align 8 dereferenceable(8) %2) #13
  %3 = load ptr, ptr %call1, align 8
  %sub.ptr.lhs.cast = ptrtoint ptr %1 to i64
  %sub.ptr.rhs.cast = ptrtoint ptr %3 to i64
  %sub.ptr.sub = sub i64 %sub.ptr.lhs.cast, %sub.ptr.rhs.cast
  ret i64 %sub.ptr.sub
}

; Function Attrs: mustprogress nounwind uwtable
define linkonce_odr dso_local ptr @_ZNKSt6vectorIhSaIhEE6cbeginEv(ptr noundef nonnull align 8 dereferenceable(24) %this) #0 comdat align 2 {
entry:
  %retval = alloca %"class.__gnu_cxx::__normal_iterator.43", align 8
  %this.addr = alloca ptr, align 8
  store ptr %this, ptr %this.addr, align 8
  %this1 = load ptr, ptr %this.addr, align 8
  %_M_impl = getelementptr inbounds %"struct.std::_Vector_base.14", ptr %this1, i32 0, i32 0
  %_M_start = getelementptr inbounds %"struct.std::_Vector_base<unsigned char, std::allocator<unsigned char>>::_Vector_impl_data", ptr %_M_impl, i32 0, i32 0
  call void @_ZN9__gnu_cxx17__normal_iteratorIPKhSt6vectorIhSaIhEEEC2ERKS2_(ptr noundef nonnull align 8 dereferenceable(8) %retval, ptr noundef nonnull align 8 dereferenceable(8) %_M_start) #13
  %coerce.dive = getelementptr inbounds %"class.__gnu_cxx::__normal_iterator.43", ptr %retval, i32 0, i32 0
  %0 = load ptr, ptr %coerce.dive, align 8
  ret ptr %0
}

; Function Attrs: mustprogress nounwind uwtable
define linkonce_odr dso_local noundef nonnull align 8 dereferenceable(8) ptr @_ZNK9__gnu_cxx17__normal_iteratorIPhSt6vectorIhSaIhEEE4baseEv(ptr noundef nonnull align 8 dereferenceable(8) %this) #0 comdat align 2 {
entry:
  %this.addr = alloca ptr, align 8
  store ptr %this, ptr %this.addr, align 8
  %this1 = load ptr, ptr %this.addr, align 8
  %_M_current = getelementptr inbounds %"class.__gnu_cxx::__normal_iterator", ptr %this1, i32 0, i32 0
  ret ptr %_M_current
}

; Function Attrs: mustprogress nounwind uwtable
define linkonce_odr dso_local void @_ZN9__gnu_cxx17__normal_iteratorIPhSt6vectorIhSaIhEEEC2ERKS1_(ptr noundef nonnull align 8 dereferenceable(8) %this, ptr noundef nonnull align 8 dereferenceable(8) %__i) unnamed_addr #0 comdat align 2 {
entry:
  %this.addr = alloca ptr, align 8
  %__i.addr = alloca ptr, align 8
  store ptr %this, ptr %this.addr, align 8
  store ptr %__i, ptr %__i.addr, align 8
  %this1 = load ptr, ptr %this.addr, align 8
  %_M_current = getelementptr inbounds %"class.__gnu_cxx::__normal_iterator", ptr %this1, i32 0, i32 0
  %0 = load ptr, ptr %__i.addr, align 8
  %1 = load ptr, ptr %0, align 8
  store ptr %1, ptr %_M_current, align 8
  ret void
}

; Function Attrs: mustprogress nounwind uwtable
define linkonce_odr dso_local ptr @_ZNSt6vectorIhSaIhEE6insertIPKhvEEN9__gnu_cxx17__normal_iteratorIPhS1_EENS6_IS4_S1_EET_SA_(ptr noundef nonnull align 8 dereferenceable(24) %this, ptr %__position.coerce, ptr noundef %__first, ptr noundef %__last) #0 comdat align 2 {
entry:
  %retval = alloca %"class.__gnu_cxx::__normal_iterator", align 8
  %__position = alloca %"class.__gnu_cxx::__normal_iterator.43", align 8
  %this.addr = alloca ptr, align 8
  %__first.addr = alloca ptr, align 8
  %__last.addr = alloca ptr, align 8
  %__offset = alloca i64, align 8
  %ref.tmp = alloca %"class.__gnu_cxx::__normal_iterator.43", align 8
  %agg.tmp = alloca %"class.__gnu_cxx::__normal_iterator", align 8
  %ref.tmp4 = alloca %"class.__gnu_cxx::__normal_iterator", align 8
  %ref.tmp11 = alloca %"class.__gnu_cxx::__normal_iterator", align 8
  %coerce.dive = getelementptr inbounds %"class.__gnu_cxx::__normal_iterator.43", ptr %__position, i32 0, i32 0
  store ptr %__position.coerce, ptr %coerce.dive, align 8
  store ptr %this, ptr %this.addr, align 8
  store ptr %__first, ptr %__first.addr, align 8
  store ptr %__last, ptr %__last.addr, align 8
  %this1 = load ptr, ptr %this.addr, align 8
  %call = call ptr @_ZNKSt6vectorIhSaIhEE6cbeginEv(ptr noundef nonnull align 8 dereferenceable(24) %this1) #13
  %coerce.dive2 = getelementptr inbounds %"class.__gnu_cxx::__normal_iterator.43", ptr %ref.tmp, i32 0, i32 0
  store ptr %call, ptr %coerce.dive2, align 8
  %call3 = call noundef i64 @_ZN9__gnu_cxxmiIPKhSt6vectorIhSaIhEEEENS_17__normal_iteratorIT_T0_E15difference_typeERKS9_SC_(ptr noundef nonnull align 8 dereferenceable(8) %__position, ptr noundef nonnull align 8 dereferenceable(8) %ref.tmp) #13
  store i64 %call3, ptr %__offset, align 8
  %call5 = call ptr @_ZNSt6vectorIhSaIhEE5beginEv(ptr noundef nonnull align 8 dereferenceable(24) %this1) #13
  %coerce.dive6 = getelementptr inbounds %"class.__gnu_cxx::__normal_iterator", ptr %ref.tmp4, i32 0, i32 0
  store ptr %call5, ptr %coerce.dive6, align 8
  %0 = load i64, ptr %__offset, align 8
  %call7 = call ptr @_ZNK9__gnu_cxx17__normal_iteratorIPhSt6vectorIhSaIhEEEplEl(ptr noundef nonnull align 8 dereferenceable(8) %ref.tmp4, i64 noundef %0) #13
  %coerce.dive8 = getelementptr inbounds %"class.__gnu_cxx::__normal_iterator", ptr %agg.tmp, i32 0, i32 0
  store ptr %call7, ptr %coerce.dive8, align 8
  %1 = load ptr, ptr %__first.addr, align 8
  %2 = load ptr, ptr %__last.addr, align 8
  %coerce.dive10 = getelementptr inbounds %"class.__gnu_cxx::__normal_iterator", ptr %agg.tmp, i32 0, i32 0
  %3 = load ptr, ptr %coerce.dive10, align 8
  call void @_ZNSt6vectorIhSaIhEE18_M_insert_dispatchIPKhEEvN9__gnu_cxx17__normal_iteratorIPhS1_EET_S9_St12__false_type(ptr noundef nonnull align 8 dereferenceable(24) %this1, ptr %3, ptr noundef %1, ptr noundef %2)
  %call12 = call ptr @_ZNSt6vectorIhSaIhEE5beginEv(ptr noundef nonnull align 8 dereferenceable(24) %this1) #13
  %coerce.dive13 = getelementptr inbounds %"class.__gnu_cxx::__normal_iterator", ptr %ref.tmp11, i32 0, i32 0
  store ptr %call12, ptr %coerce.dive13, align 8
  %4 = load i64, ptr %__offset, align 8
  %call14 = call ptr @_ZNK9__gnu_cxx17__normal_iteratorIPhSt6vectorIhSaIhEEEplEl(ptr noundef nonnull align 8 dereferenceable(8) %ref.tmp11, i64 noundef %4) #13
  %coerce.dive15 = getelementptr inbounds %"class.__gnu_cxx::__normal_iterator", ptr %retval, i32 0, i32 0
  store ptr %call14, ptr %coerce.dive15, align 8
  %coerce.dive16 = getelementptr inbounds %"class.__gnu_cxx::__normal_iterator", ptr %retval, i32 0, i32 0
  %5 = load ptr, ptr %coerce.dive16, align 8
  ret ptr %5
}

; Function Attrs: mustprogress nounwind uwtable
define linkonce_odr dso_local noundef ptr @_ZNK4node9inspector8protocol4spanIhE3endEv(ptr noundef nonnull align 8 dereferenceable(16) %this) #0 comdat align 2 {
entry:
  %this.addr = alloca ptr, align 8
  store ptr %this, ptr %this.addr, align 8
  %this1 = load ptr, ptr %this.addr, align 8
  %data_ = getelementptr inbounds %"class.node::inspector::protocol::span", ptr %this1, i32 0, i32 0
  %0 = load ptr, ptr %data_, align 8
  %size_ = getelementptr inbounds %"class.node::inspector::protocol::span", ptr %this1, i32 0, i32 1
  %1 = load i64, ptr %size_, align 8
  %add.ptr = getelementptr inbounds i8, ptr %0, i64 %1
  ret ptr %add.ptr
}

; Function Attrs: mustprogress nounwind uwtable
define linkonce_odr dso_local noundef ptr @_ZNK4node9inspector8protocol4spanIhE5beginEv(ptr noundef nonnull align 8 dereferenceable(16) %this) #0 comdat align 2 {
entry:
  %this.addr = alloca ptr, align 8
  store ptr %this, ptr %this.addr, align 8
  %this1 = load ptr, ptr %this.addr, align 8
  %data_ = getelementptr inbounds %"class.node::inspector::protocol::span", ptr %this1, i32 0, i32 0
  %0 = load ptr, ptr %data_, align 8
  ret ptr %0
}

; Function Attrs: mustprogress nounwind uwtable
define linkonce_odr dso_local void @_ZN9__gnu_cxx17__normal_iteratorIPKhSt6vectorIhSaIhEEEC2IPhvEERKNS0_IT_S5_EE(ptr noundef nonnull align 8 dereferenceable(8) %this, ptr noundef nonnull align 8 dereferenceable(8) %__i) unnamed_addr #0 comdat align 2 {
entry:
  %this.addr = alloca ptr, align 8
  %__i.addr = alloca ptr, align 8
  store ptr %this, ptr %this.addr, align 8
  store ptr %__i, ptr %__i.addr, align 8
  %this1 = load ptr, ptr %this.addr, align 8
  %_M_current = getelementptr inbounds %"class.__gnu_cxx::__normal_iterator.43", ptr %this1, i32 0, i32 0
  %0 = load ptr, ptr %__i.addr, align 8
  %call = call noundef nonnull align 8 dereferenceable(8) ptr @_ZNK9__gnu_cxx17__normal_iteratorIPhSt6vectorIhSaIhEEE4baseEv(ptr noundef nonnull align 8 dereferenceable(8) %0) #13
  %1 = load ptr, ptr %call, align 8
  store ptr %1, ptr %_M_current, align 8
  ret void
}

; Function Attrs: mustprogress nounwind uwtable
define linkonce_odr dso_local ptr @_ZNSt6vectorIhSaIhEE3endEv(ptr noundef nonnull align 8 dereferenceable(24) %this) #0 comdat align 2 {
entry:
  %retval = alloca %"class.__gnu_cxx::__normal_iterator", align 8
  %this.addr = alloca ptr, align 8
  store ptr %this, ptr %this.addr, align 8
  %this1 = load ptr, ptr %this.addr, align 8
  %_M_impl = getelementptr inbounds %"struct.std::_Vector_base.14", ptr %this1, i32 0, i32 0
  %_M_finish = getelementptr inbounds %"struct.std::_Vector_base<unsigned char, std::allocator<unsigned char>>::_Vector_impl_data", ptr %_M_impl, i32 0, i32 1
  call void @_ZN9__gnu_cxx17__normal_iteratorIPhSt6vectorIhSaIhEEEC2ERKS1_(ptr noundef nonnull align 8 dereferenceable(8) %retval, ptr noundef nonnull align 8 dereferenceable(8) %_M_finish) #13
  %coerce.dive = getelementptr inbounds %"class.__gnu_cxx::__normal_iterator", ptr %retval, i32 0, i32 0
  %0 = load ptr, ptr %coerce.dive, align 8
  ret ptr %0
}

; Function Attrs: mustprogress nounwind uwtable
define dso_local void @_ZN4node9inspector8protocol4cbor9internals15WriteTokenStartENS2_9MajorTypeEmPSt6vectorIhSaIhEE(i32 noundef %type, i64 noundef %value, ptr noundef %encoded) #0 {
entry:
  %type.addr = alloca i32, align 4
  %value.addr = alloca i64, align 8
  %encoded.addr = alloca ptr, align 8
  store i32 %type, ptr %type.addr, align 4
  store i64 %value, ptr %value.addr, align 8
  store ptr %encoded, ptr %encoded.addr, align 8
  %0 = load i32, ptr %type.addr, align 4
  %1 = load i64, ptr %value.addr, align 8
  %2 = load ptr, ptr %encoded.addr, align 8
  call void @_ZN4node9inspector8protocol4cbor9internals19WriteTokenStartTmplISt6vectorIhSaIhEEEEvNS2_9MajorTypeEmPT_(i32 noundef %0, i64 noundef %1, ptr noundef %2)
  ret void
}

; Function Attrs: mustprogress nounwind uwtable
define linkonce_odr dso_local noundef i64 @_ZNK4node9inspector8protocol4spanIhE10size_bytesEv(ptr noundef nonnull align 8 dereferenceable(16) %this) #0 comdat align 2 {
entry:
  %this.addr = alloca ptr, align 8
  store ptr %this, ptr %this.addr, align 8
  %this1 = load ptr, ptr %this.addr, align 8
  %size_ = getelementptr inbounds %"class.node::inspector::protocol::span", ptr %this1, i32 0, i32 1
  %0 = load i64, ptr %size_, align 8
  %mul = mul i64 %0, 1
  ret i64 %mul
}

; Function Attrs: mustprogress nounwind uwtable
define linkonce_odr dso_local void @_ZN4node9inspector8protocol4cbor17EncodeString8TmplISt6vectorIhSaIhEEEEvNS1_4spanIhEEPT_(ptr %in.coerce0, i64 %in.coerce1, ptr noundef %out) #0 comdat {
entry:
  %in = alloca %"class.node::inspector::protocol::span", align 8
  %out.addr = alloca ptr, align 8
  %agg.tmp = alloca %"class.__gnu_cxx::__normal_iterator.43", align 8
  %ref.tmp = alloca %"class.__gnu_cxx::__normal_iterator", align 8
  %coerce = alloca %"class.__gnu_cxx::__normal_iterator", align 8
  %0 = getelementptr inbounds { ptr, i64 }, ptr %in, i32 0, i32 0
  store ptr %in.coerce0, ptr %0, align 8
  %1 = getelementptr inbounds { ptr, i64 }, ptr %in, i32 0, i32 1
  store i64 %in.coerce1, ptr %1, align 8
  store ptr %out, ptr %out.addr, align 8
  %call = call noundef i64 @_ZNK4node9inspector8protocol4spanIhE10size_bytesEv(ptr noundef nonnull align 8 dereferenceable(16) %in)
  %2 = load ptr, ptr %out.addr, align 8
  call void @_ZN4node9inspector8protocol4cbor9internals15WriteTokenStartENS2_9MajorTypeEmPSt6vectorIhSaIhEE(i32 noundef 3, i64 noundef %call, ptr noundef %2)
  %3 = load ptr, ptr %out.addr, align 8
  %4 = load ptr, ptr %out.addr, align 8
  %call1 = call ptr @_ZNSt6vectorIhSaIhEE3endEv(ptr noundef nonnull align 8 dereferenceable(24) %4) #13
  %coerce.dive = getelementptr inbounds %"class.__gnu_cxx::__normal_iterator", ptr %ref.tmp, i32 0, i32 0
  store ptr %call1, ptr %coerce.dive, align 8
  call void @_ZN9__gnu_cxx17__normal_iteratorIPKhSt6vectorIhSaIhEEEC2IPhvEERKNS0_IT_S5_EE(ptr noundef nonnull align 8 dereferenceable(8) %agg.tmp, ptr noundef nonnull align 8 dereferenceable(8) %ref.tmp) #13
  %call2 = call noundef ptr @_ZNK4node9inspector8protocol4spanIhE5beginEv(ptr noundef nonnull align 8 dereferenceable(16) %in)
  %call3 = call noundef ptr @_ZNK4node9inspector8protocol4spanIhE3endEv(ptr noundef nonnull align 8 dereferenceable(16) %in)
  %coerce.dive4 = getelementptr inbounds %"class.__gnu_cxx::__normal_iterator.43", ptr %agg.tmp, i32 0, i32 0
  %5 = load ptr, ptr %coerce.dive4, align 8
  %call5 = call ptr @_ZNSt6vectorIhSaIhEE6insertIPKhvEEN9__gnu_cxx17__normal_iteratorIPhS1_EENS6_IS4_S1_EET_SA_(ptr noundef nonnull align 8 dereferenceable(24) %3, ptr %5, ptr noundef %call2, ptr noundef %call3)
  %coerce.dive6 = getelementptr inbounds %"class.__gnu_cxx::__normal_iterator", ptr %coerce, i32 0, i32 0
  store ptr %call5, ptr %coerce.dive6, align 8
  ret void
}

; Function Attrs: mustprogress nounwind uwtable
define dso_local void @_ZN4node9inspector8protocol4cbor13EncodeString8ENS1_4spanIhEEPSt6vectorIhSaIhEE(ptr %in.coerce0, i64 %in.coerce1, ptr noundef %out) #0 {
entry:
  %in = alloca %"class.node::inspector::protocol::span", align 8
  %out.addr = alloca ptr, align 8
  %agg.tmp = alloca %"class.node::inspector::protocol::span", align 8
  %0 = getelementptr inbounds { ptr, i64 }, ptr %in, i32 0, i32 0
  store ptr %in.coerce0, ptr %0, align 8
  %1 = getelementptr inbounds { ptr, i64 }, ptr %in, i32 0, i32 1
  store i64 %in.coerce1, ptr %1, align 8
  store ptr %out, ptr %out.addr, align 8
  call void @llvm.memcpy.p0.p0.i64(ptr align 8 %agg.tmp, ptr align 8 %in, i64 16, i1 false)
  %2 = load ptr, ptr %out.addr, align 8
  %3 = getelementptr inbounds { ptr, i64 }, ptr %agg.tmp, i32 0, i32 0
  %4 = load ptr, ptr %3, align 8
  %5 = getelementptr inbounds { ptr, i64 }, ptr %agg.tmp, i32 0, i32 1
  %6 = load i64, ptr %5, align 8
  call void @_ZN4node9inspector8protocol4cbor17EncodeString8TmplISt6vectorIhSaIhEEEEvNS1_4spanIhEEPT_(ptr %4, i64 %6, ptr noundef %2)
  ret void
}

; Function Attrs: mustprogress nounwind uwtable
define linkonce_odr dso_local noundef zeroext i1 @_ZNK4node9inspector8protocol6Status2okEv(ptr noundef nonnull align 8 dereferenceable(16) %this) #0 comdat align 2 {
entry:
  %this.addr = alloca ptr, align 8
  store ptr %this, ptr %this.addr, align 8
  %this1 = load ptr, ptr %this.addr, align 8
  %error = getelementptr inbounds %"struct.node::inspector::protocol::Status", ptr %this1, i32 0, i32 0
  %0 = load i32, ptr %error, align 8
  %cmp = icmp eq i32 %0, 0
  ret i1 %cmp
}

; Function Attrs: mustprogress nounwind uwtable
define internal void @_ZN4node9inspector8protocol4cbor12_GLOBAL__N_111CBOREncoderISt6vectorIhSaIhEEE13HandleString8ENS1_4spanIhEE(ptr noundef nonnull align 8 dereferenceable(48) %this, ptr %chars.coerce0, i64 %chars.coerce1) unnamed_addr #0 align 2 {
entry:
  %chars = alloca %"class.node::inspector::protocol::span", align 8
  %this.addr = alloca ptr, align 8
  %agg.tmp = alloca %"class.node::inspector::protocol::span", align 8
  %0 = getelementptr inbounds { ptr, i64 }, ptr %chars, i32 0, i32 0
  store ptr %chars.coerce0, ptr %0, align 8
  %1 = getelementptr inbounds { ptr, i64 }, ptr %chars, i32 0, i32 1
  store i64 %chars.coerce1, ptr %1, align 8
  store ptr %this, ptr %this.addr, align 8
  %this1 = load ptr, ptr %this.addr, align 8
  %status_ = getelementptr inbounds %"class.node::inspector::protocol::cbor::(anonymous namespace)::CBOREncoder", ptr %this1, i32 0, i32 3
  %2 = load ptr, ptr %status_, align 8
  %call = call noundef zeroext i1 @_ZNK4node9inspector8protocol6Status2okEv(ptr noundef nonnull align 8 dereferenceable(16) %2)
  br i1 %call, label %if.end, label %if.then

if.then:                                          ; preds = %entry
  br label %return

if.end:                                           ; preds = %entry
  call void @llvm.memcpy.p0.p0.i64(ptr align 8 %agg.tmp, ptr align 8 %chars, i64 16, i1 false)
  %out_ = getelementptr inbounds %"class.node::inspector::protocol::cbor::(anonymous namespace)::CBOREncoder", ptr %this1, i32 0, i32 1
  %3 = load ptr, ptr %out_, align 8
  %4 = getelementptr inbounds { ptr, i64 }, ptr %agg.tmp, i32 0, i32 0
  %5 = load ptr, ptr %4, align 8
  %6 = getelementptr inbounds { ptr, i64 }, ptr %agg.tmp, i32 0, i32 1
  %7 = load i64, ptr %6, align 8
  call void @_ZN4node9inspector8protocol4cbor13EncodeString8ENS1_4spanIhEEPSt6vectorIhSaIhEE(ptr %5, i64 %7, ptr noundef %3)
  br label %return

return:                                           ; preds = %if.end, %if.then
  ret void
}