; Function Attrs: mustprogress nounwind uwtable
define internal void @_ZN4node9inspector8protocol4cbor12_GLOBAL__N_111CBOREncoderISt6vectorIhSaIhEEE13HandleString8ENS1_4spanIhEE(ptr nocapture noundef nonnull readonly align 8 dereferenceable(48) %this, ptr %chars.coerce0, i64 %chars.coerce1) unnamed_addr #1 align 2 {
entry:
  %status_ = getelementptr inbounds i8, ptr %this, i64 40
  %0 = load ptr, ptr %status_, align 8
  %1 = load i32, ptr %0, align 8
  %cmp.i = icmp eq i32 %1, 0
  br i1 %cmp.i, label %if.end, label %return

if.end:                                           ; preds = %entry
  %out_ = getelementptr inbounds i8, ptr %this, i64 8
  %2 = load ptr, ptr %out_, align 8
  tail call void @_ZN4node9inspector8protocol4cbor9internals19WriteTokenStartTmplISt6vectorIhSaIhEEEEvNS2_9MajorTypeEmPT_(i32 noundef 3, i64 noundef %chars.coerce1, ptr noundef %2)
  %_M_finish.i.i.i = getelementptr inbounds i8, ptr %2, i64 8
  %3 = load ptr, ptr %_M_finish.i.i.i, align 8
  %add.ptr.i.i.i = getelementptr inbounds i8, ptr %chars.coerce0, i64 %chars.coerce1
  %4 = load ptr, ptr %2, align 8
  %sub.ptr.lhs.cast.i.i.i.i = ptrtoint ptr %3 to i64
  %sub.ptr.rhs.cast.i.i.i.i = ptrtoint ptr %4 to i64
  %sub.ptr.sub.i.i.i.i = sub i64 %sub.ptr.lhs.cast.i.i.i.i, %sub.ptr.rhs.cast.i.i.i.i
  %add.ptr.i.i.i.i = getelementptr inbounds i8, ptr %4, i64 %sub.ptr.sub.i.i.i.i
  tail call void @_ZNSt6vectorIhSaIhEE15_M_range_insertIPKhEEvN9__gnu_cxx17__normal_iteratorIPhS1_EET_S9_St20forward_iterator_tag(ptr noundef nonnull align 8 dereferenceable(24) %2, ptr %add.ptr.i.i.i.i, ptr noundef %chars.coerce0, ptr noundef %add.ptr.i.i.i)
  br label %return

return:                                           ; preds = %entry, %if.end
  ret void
}